; Function Attrs: nounwind uwtable
define dso_local void @PushCopiedSnapshot(ptr noundef readonly captures(none) %0) local_unnamed_addr #0 {
  %2 = getelementptr inbounds nuw i8, ptr %0, i64 24
  %3 = load i32, ptr %2, align 8
  %4 = zext i32 %3 to i64
  %5 = shl nuw nsw i64 %4, 2
  %6 = add nuw nsw i64 %5, 104
  %7 = getelementptr inbounds nuw i8, ptr %0, i64 40
  %8 = load i32, ptr %7, align 8
  %9 = icmp sgt i32 %8, 0
  %10 = zext nneg i32 %8 to i64
  %11 = add nuw nsw i64 %10, %4
  %12 = shl nuw nsw i64 %11, 2
  %13 = add nuw nsw i64 %12, 104
  %.0.i = select i1 %9, i64 %13, i64 %6
  %14 = load ptr, ptr @TopTransactionContext, align 8
  %15 = tail call ptr @MemoryContextAlloc(ptr noundef %14, i64 noundef %.0.i) #18
  tail call void @llvm.memcpy.p0.p0.i64(ptr noundef nonnull align 8 dereferenceable(104) %15, ptr noundef nonnull readonly align 8 dereferenceable(104) %0, i64 96, i1 false)
  %16 = getelementptr inbounds nuw i8, ptr %15, i64 68
  store i32 0, ptr %16, align 4
  %17 = getelementptr inbounds nuw i8, ptr %15, i64 64
  store i32 0, ptr %17, align 8
  %18 = getelementptr inbounds nuw i8, ptr %15, i64 46
  store i8 1, ptr %18, align 2
  %19 = getelementptr inbounds nuw i8, ptr %15, i64 96
  store i64 0, ptr %19, align 8
  %20 = load i32, ptr %2, align 8
  %.not.i = icmp eq i32 %20, 0
  br i1 %.not.i, label %29, label %21

21:                                               ; preds = %1
  %22 = getelementptr inbounds nuw i8, ptr %15, i64 104
  %23 = getelementptr inbounds nuw i8, ptr %15, i64 16
  store ptr %22, ptr %23, align 8
  %24 = getelementptr inbounds nuw i8, ptr %0, i64 16
  %25 = load ptr, ptr %24, align 8
  %26 = load i32, ptr %2, align 8
  %27 = zext i32 %26 to i64
  %28 = shl nuw nsw i64 %27, 2
  tail call void @llvm.memcpy.p0.p0.i64(ptr nonnull align 4 %22, ptr align 4 %25, i64 %28, i1 false)
  br label %31

29:                                               ; preds = %1
  %30 = getelementptr inbounds nuw i8, ptr %15, i64 16
  store ptr null, ptr %30, align 8
  br label %31

31:                                               ; preds = %29, %21
  %32 = load i32, ptr %7, align 8
  %33 = icmp sgt i32 %32, 0
  br i1 %33, label %34, label %50

34:                                               ; preds = %31
  %35 = getelementptr inbounds nuw i8, ptr %0, i64 44
  %36 = load i8, ptr %35, align 4, !range !4, !noundef !5
  %37 = trunc nuw i8 %36 to i1
  br i1 %37, label %38, label %42

38:                                               ; preds = %34
  %39 = getelementptr inbounds nuw i8, ptr %0, i64 45
  %40 = load i8, ptr %39, align 1, !range !4, !noundef !5
  %41 = trunc nuw i8 %40 to i1
  br i1 %41, label %42, label %50

42:                                               ; preds = %38, %34
  %43 = getelementptr inbounds nuw i8, ptr %15, i64 %6
  %44 = getelementptr inbounds nuw i8, ptr %15, i64 32
  store ptr %43, ptr %44, align 8
  %45 = getelementptr inbounds nuw i8, ptr %0, i64 32
  %46 = load ptr, ptr %45, align 8
  %47 = load i32, ptr %7, align 8
  %48 = sext i32 %47 to i64
  %49 = shl nsw i64 %48, 2
  tail call void @llvm.memcpy.p0.p0.i64(ptr nonnull align 4 %43, ptr align 4 %46, i64 %49, i1 false)
  br label %CopySnapshot.exit

50:                                               ; preds = %38, %31
  %51 = getelementptr inbounds nuw i8, ptr %15, i64 32
  store ptr null, ptr %51, align 8
  br label %CopySnapshot.exit

CopySnapshot.exit:                                ; preds = %42, %50
  %52 = tail call i32 @GetCurrentTransactionNestLevel() #18
  tail call void @PushActiveSnapshotWithLevel(ptr noundef nonnull %15, i32 noundef %52)
  ret void
}